target datalayout = "e-m:e-p270:32:32-p271:32:32-p272:64:64-i64:64-i128:128-f80:128-n8:16:32:64-S128"
target triple = "x86_64-pc-linux-gnu"

%class.btConvexInternalShape = type { %class.btConvexShape, %class.btVector3, %class.btVector3, float, float }
%class.btConvexShape = type { %class.btCollisionShape }
%class.btCollisionShape = type { ptr, i32, ptr, i32, i32 }
%class.btVector3 = type { [4 x float] }
%class.btConvexPointCloudShape = type <{ %class.btPolyhedralConvexAabbCachingShape.base, [7 x i8], ptr, i32, [4 x i8] }>
%class.btPolyhedralConvexAabbCachingShape.base = type <{ %class.btPolyhedralConvexShape, %class.btVector3, %class.btVector3, i8 }>
%class.btPolyhedralConvexShape = type { %class.btConvexInternalShape, ptr }

; Function Attrs: inlinehint mustprogress nounwind uwtable
define linkonce_odr dso_local noundef float @_ZNK9btVector33dotERKS_(ptr noundef nonnull align 4 dereferenceable(16) %0, ptr noundef nonnull align 4 dereferenceable(16) %1) #7 comdat align 2 {
  %3 = alloca ptr, align 8
  %4 = alloca ptr, align 8
  store ptr %0, ptr %3, align 8, !tbaa !14
  store ptr %1, ptr %4, align 8, !tbaa !14
  %5 = load ptr, ptr %3, align 8
  %6 = getelementptr inbounds nuw %class.btVector3, ptr %5, i32 0, i32 0
  %7 = getelementptr inbounds [4 x float], ptr %6, i64 0, i64 0
  %8 = load float, ptr %7, align 4, !tbaa !17
  %9 = load ptr, ptr %4, align 8, !tbaa !14
  %10 = getelementptr inbounds nuw %class.btVector3, ptr %9, i32 0, i32 0
  %11 = getelementptr inbounds [4 x float], ptr %10, i64 0, i64 0
  %12 = load float, ptr %11, align 4, !tbaa !17
  %13 = getelementptr inbounds nuw %class.btVector3, ptr %5, i32 0, i32 0
  %14 = getelementptr inbounds [4 x float], ptr %13, i64 0, i64 1
  %15 = load float, ptr %14, align 4, !tbaa !17
  %16 = load ptr, ptr %4, align 8, !tbaa !14
  %17 = getelementptr inbounds nuw %class.btVector3, ptr %16, i32 0, i32 0
  %18 = getelementptr inbounds [4 x float], ptr %17, i64 0, i64 1
  %19 = load float, ptr %18, align 4, !tbaa !17
  %20 = fmul float %15, %19
  %21 = call float @llvm.fmuladd.f32(float %8, float %12, float %20)
  %22 = getelementptr inbounds nuw %class.btVector3, ptr %5, i32 0, i32 0
  %23 = getelementptr inbounds [4 x float], ptr %22, i64 0, i64 2
  %24 = load float, ptr %23, align 4, !tbaa !17
  %25 = load ptr, ptr %4, align 8, !tbaa !14
  %26 = getelementptr inbounds nuw %class.btVector3, ptr %25, i32 0, i32 0
  %27 = getelementptr inbounds [4 x float], ptr %26, i64 0, i64 2
  %28 = load float, ptr %27, align 4, !tbaa !17
  %29 = call float @llvm.fmuladd.f32(float %24, float %28, float %21)
  ret float %29
}

; Function Attrs: inlinehint mustprogress nounwind uwtable
define linkonce_odr dso_local void @_ZN9btVector3C2ERKfS1_S1_(ptr noundef nonnull align 4 dereferenceable(16) %0, ptr noundef nonnull align 4 dereferenceable(4) %1, ptr noundef nonnull align 4 dereferenceable(4) %2, ptr noundef nonnull align 4 dereferenceable(4) %3) unnamed_addr #7 comdat align 2 {
  %5 = alloca ptr, align 8
  %6 = alloca ptr, align 8
  %7 = alloca ptr, align 8
  %8 = alloca ptr, align 8
  store ptr %0, ptr %5, align 8, !tbaa !14
  store ptr %1, ptr %6, align 8, !tbaa !30
  store ptr %2, ptr %7, align 8, !tbaa !30
  store ptr %3, ptr %8, align 8, !tbaa !30
  %9 = load ptr, ptr %5, align 8
  %10 = load ptr, ptr %6, align 8, !tbaa !30
  %11 = load float, ptr %10, align 4, !tbaa !17
  %12 = getelementptr inbounds nuw %class.btVector3, ptr %9, i32 0, i32 0
  %13 = getelementptr inbounds [4 x float], ptr %12, i64 0, i64 0
  store float %11, ptr %13, align 4, !tbaa !17
  %14 = load ptr, ptr %7, align 8, !tbaa !30
  %15 = load float, ptr %14, align 4, !tbaa !17
  %16 = getelementptr inbounds nuw %class.btVector3, ptr %9, i32 0, i32 0
  %17 = getelementptr inbounds [4 x float], ptr %16, i64 0, i64 1
  store float %15, ptr %17, align 4, !tbaa !17
  %18 = load ptr, ptr %8, align 8, !tbaa !30
  %19 = load float, ptr %18, align 4, !tbaa !17
  %20 = getelementptr inbounds nuw %class.btVector3, ptr %9, i32 0, i32 0
  %21 = getelementptr inbounds [4 x float], ptr %20, i64 0, i64 2
  store float %19, ptr %21, align 4, !tbaa !17
  %22 = getelementptr inbounds nuw %class.btVector3, ptr %9, i32 0, i32 0
  %23 = getelementptr inbounds [4 x float], ptr %22, i64 0, i64 3
  store float 0.000000e+00, ptr %23, align 4, !tbaa !17
  ret void
}

; Function Attrs: inlinehint mustprogress uwtable
define linkonce_odr dso_local { <2 x float>, <2 x float> } @_ZNK23btConvexPointCloudShape14getScaledPointEi(ptr noundef nonnull align 8 dereferenceable(132) %0, i32 noundef %1) #9 comdat align 2 {
  %3 = alloca %class.btVector3, align 4
  %4 = alloca ptr, align 8
  %5 = alloca i32, align 4
  store ptr %0, ptr %4, align 8, !tbaa !12
  store i32 %1, ptr %5, align 4, !tbaa !9
  %6 = load ptr, ptr %4, align 8
  %7 = getelementptr inbounds nuw %class.btConvexPointCloudShape, ptr %6, i32 0, i32 2
  %8 = load ptr, ptr %7, align 8, !tbaa !29
  %9 = load i32, ptr %5, align 4, !tbaa !9
  %10 = sext i32 %9 to i64
  %11 = getelementptr inbounds %class.btVector3, ptr %8, i64 %10
  %12 = getelementptr inbounds nuw %class.btConvexInternalShape, ptr %6, i32 0, i32 1
  %13 = call { <2 x float>, <2 x float> } @_ZmlRK9btVector3S1_(ptr noundef nonnull align 4 dereferenceable(16) %11, ptr noundef nonnull align 4 dereferenceable(16) %12)
  %14 = getelementptr inbounds nuw %class.btVector3, ptr %3, i32 0, i32 0
  %15 = getelementptr inbounds nuw { <2 x float>, <2 x float> }, ptr %14, i32 0, i32 0
  %16 = extractvalue { <2 x float>, <2 x float> } %13, 0
  store <2 x float> %16, ptr %15, align 4
  %17 = getelementptr inbounds nuw { <2 x float>, <2 x float> }, ptr %14, i32 0, i32 1
  %18 = extractvalue { <2 x float>, <2 x float> } %13, 1
  store <2 x float> %18, ptr %17, align 4
  %19 = getelementptr inbounds nuw %class.btVector3, ptr %3, i32 0, i32 0
  %20 = load { <2 x float>, <2 x float> }, ptr %19, align 4
  ret { <2 x float>, <2 x float> } %20
}

; Function Attrs: inlinehint mustprogress nounwind uwtable
define linkonce_odr dso_local noundef ptr @_ZN9btVector3cvPfEv(ptr noundef nonnull align 4 dereferenceable(16) %0) #7 comdat align 2 {
  %2 = alloca ptr, align 8
  store ptr %0, ptr %2, align 8, !tbaa !14
  %3 = load ptr, ptr %2, align 8
  %4 = getelementptr inbounds nuw %class.btVector3, ptr %3, i32 0, i32 0
  %5 = getelementptr inbounds [4 x float], ptr %4, i64 0, i64 0
  ret ptr %5
}

; Function Attrs: inlinehint mustprogress nounwind uwtable
define linkonce_odr dso_local noundef i64 @_ZNK9btVector36maxDotEPKS_lRf(ptr noundef nonnull align 4 dereferenceable(16) %0, ptr noundef %1, i64 noundef %2, ptr noundef nonnull align 4 dereferenceable(4) %3) #7 comdat align 2 {
  %5 = alloca ptr, align 8
  %6 = alloca ptr, align 8
  %7 = alloca i64, align 8
  %8 = alloca ptr, align 8
  %9 = alloca float, align 4
  %10 = alloca i32, align 4
  %11 = alloca i32, align 4
  %12 = alloca float, align 4
  store ptr %0, ptr %5, align 8, !tbaa !14
  store ptr %1, ptr %6, align 8, !tbaa !14
  store i64 %2, ptr %7, align 8, !tbaa !32
  store ptr %3, ptr %8, align 8, !tbaa !30
  %13 = load ptr, ptr %5, align 8
  call void @llvm.lifetime.start.p0(i64 4, ptr %9) #13
  store float 0xC7EFFFFFE0000000, ptr %9, align 4, !tbaa !17
  call void @llvm.lifetime.start.p0(i64 4, ptr %10) #13
  store i32 0, ptr %10, align 4, !tbaa !9
  call void @llvm.lifetime.start.p0(i64 4, ptr %11) #13
  store i32 -1, ptr %11, align 4, !tbaa !9
  store i32 0, ptr %10, align 4, !tbaa !9
  br label %14

14:                                               ; preds = %32, %4
  %15 = load i32, ptr %10, align 4, !tbaa !9
  %16 = sext i32 %15 to i64
  %17 = load i64, ptr %7, align 8, !tbaa !32
  %18 = icmp slt i64 %16, %17
  br i1 %18, label %19, label %35

19:                                               ; preds = %14
  call void @llvm.lifetime.start.p0(i64 4, ptr %12) #13
  %20 = load ptr, ptr %6, align 8, !tbaa !14
  %21 = load i32, ptr %10, align 4, !tbaa !9
  %22 = sext i32 %21 to i64
  %23 = getelementptr inbounds %class.btVector3, ptr %20, i64 %22
  %24 = call noundef float @_ZNK9btVector33dotERKS_(ptr noundef nonnull align 4 dereferenceable(16) %23, ptr noundef nonnull align 4 dereferenceable(16) %13)
  store float %24, ptr %12, align 4, !tbaa !17
  %25 = load float, ptr %12, align 4, !tbaa !17
  %26 = load float, ptr %9, align 4, !tbaa !17
  %27 = fcmp ogt float %25, %26
  br i1 %27, label %28, label %31

28:                                               ; preds = %19
  %29 = load float, ptr %12, align 4, !tbaa !17
  store float %29, ptr %9, align 4, !tbaa !17
  %30 = load i32, ptr %10, align 4, !tbaa !9
  store i32 %30, ptr %11, align 4, !tbaa !9
  br label %31

31:                                               ; preds = %28, %19
  call void @llvm.lifetime.end.p0(i64 4, ptr %12) #13
  br label %32

32:                                               ; preds = %31
  %33 = load i32, ptr %10, align 4, !tbaa !9
  %34 = add nsw i32 %33, 1
  store i32 %34, ptr %10, align 4, !tbaa !9
  br label %14, !llvm.loop !34

35:                                               ; preds = %14
  %36 = load float, ptr %9, align 4, !tbaa !17
  %37 = load ptr, ptr %8, align 8, !tbaa !30
  store float %36, ptr %37, align 4, !tbaa !17
  %38 = load i32, ptr %11, align 4, !tbaa !9
  %39 = sext i32 %38 to i64
  call void @llvm.lifetime.end.p0(i64 4, ptr %11) #13
  call void @llvm.lifetime.end.p0(i64 4, ptr %10) #13
  call void @llvm.lifetime.end.p0(i64 4, ptr %9) #13
  ret i64 %39
}

; Function Attrs: inlinehint mustprogress uwtable
define linkonce_odr dso_local { <2 x float>, <2 x float> } @_ZmlRK9btVector3S1_(ptr noundef nonnull align 4 dereferenceable(16) %0, ptr noundef nonnull align 4 dereferenceable(16) %1) #8 comdat {
  %3 = alloca %class.btVector3, align 4
  %4 = alloca ptr, align 8
  %5 = alloca ptr, align 8
  %6 = alloca float, align 4
  %7 = alloca float, align 4
  %8 = alloca float, align 4
  store ptr %0, ptr %4, align 8, !tbaa !14
  store ptr %1, ptr %5, align 8, !tbaa !14
  call void @llvm.lifetime.start.p0(i64 4, ptr %6) #13
  %9 = load ptr, ptr %4, align 8, !tbaa !14
  %10 = getelementptr inbounds nuw %class.btVector3, ptr %9, i32 0, i32 0
  %11 = getelementptr inbounds [4 x float], ptr %10, i64 0, i64 0
  %12 = load float, ptr %11, align 4, !tbaa !17
  %13 = load ptr, ptr %5, align 8, !tbaa !14
  %14 = getelementptr inbounds nuw %class.btVector3, ptr %13, i32 0, i32 0
  %15 = getelementptr inbounds [4 x float], ptr %14, i64 0, i64 0
  %16 = load float, ptr %15, align 4, !tbaa !17
  %17 = fmul float %12, %16
  store float %17, ptr %6, align 4, !tbaa !17
  call void @llvm.lifetime.start.p0(i64 4, ptr %7) #13
  %18 = load ptr, ptr %4, align 8, !tbaa !14
  %19 = getelementptr inbounds nuw %class.btVector3, ptr %18, i32 0, i32 0
  %20 = getelementptr inbounds [4 x float], ptr %19, i64 0, i64 1
  %21 = load float, ptr %20, align 4, !tbaa !17
  %22 = load ptr, ptr %5, align 8, !tbaa !14
  %23 = getelementptr inbounds nuw %class.btVector3, ptr %22, i32 0, i32 0
  %24 = getelementptr inbounds [4 x float], ptr %23, i64 0, i64 1
  %25 = load float, ptr %24, align 4, !tbaa !17
  %26 = fmul float %21, %25
  store float %26, ptr %7, align 4, !tbaa !17
  call void @llvm.lifetime.start.p0(i64 4, ptr %8) #13
  %27 = load ptr, ptr %4, align 8, !tbaa !14
  %28 = getelementptr inbounds nuw %class.btVector3, ptr %27, i32 0, i32 0
  %29 = getelementptr inbounds [4 x float], ptr %28, i64 0, i64 2
  %30 = load float, ptr %29, align 4, !tbaa !17
  %31 = load ptr, ptr %5, align 8, !tbaa !14
  %32 = getelementptr inbounds nuw %class.btVector3, ptr %31, i32 0, i32 0
  %33 = getelementptr inbounds [4 x float], ptr %32, i64 0, i64 2
  %34 = load float, ptr %33, align 4, !tbaa !17
  %35 = fmul float %30, %34
  store float %35, ptr %8, align 4, !tbaa !17
  call void @_ZN9btVector3C2ERKfS1_S1_(ptr noundef nonnull align 4 dereferenceable(16) %3, ptr noundef nonnull align 4 dereferenceable(4) %6, ptr noundef nonnull align 4 dereferenceable(4) %7, ptr noundef nonnull align 4 dereferenceable(4) %8)
  call void @llvm.lifetime.end.p0(i64 4, ptr %8) #13
  call void @llvm.lifetime.end.p0(i64 4, ptr %7) #13
  call void @llvm.lifetime.end.p0(i64 4, ptr %6) #13
  %36 = getelementptr inbounds nuw %class.btVector3, ptr %3, i32 0, i32 0
  %37 = load { <2 x float>, <2 x float> }, ptr %36, align 4
  ret { <2 x float>, <2 x float> } %37
}

; Function Attrs: mustprogress uwtable
define dso_local void @_ZNK23btConvexPointCloudShape49batchedUnitVectorGetSupportingVertexWithoutMarginEPK9btVector3PS0_i(ptr noundef nonnull align 8 dereferenceable(132) %0, ptr noundef %1, ptr noundef %2, i32 noundef %3) unnamed_addr #5 align 2 {
  %5 = alloca ptr, align 8
  %6 = alloca ptr, align 8
  %7 = alloca ptr, align 8
  %8 = alloca i32, align 4
  %9 = alloca i32, align 4
  %10 = alloca ptr, align 8
  %11 = alloca %class.btVector3, align 4
  %12 = alloca float, align 4
  %13 = alloca i32, align 4
  %14 = alloca %class.btVector3, align 4
  store ptr %0, ptr %5, align 8, !tbaa !12
  store ptr %1, ptr %6, align 8, !tbaa !14
  store ptr %2, ptr %7, align 8, !tbaa !14
  store i32 %3, ptr %8, align 4, !tbaa !9
  %15 = load ptr, ptr %5, align 8
  call void @llvm.lifetime.start.p0(i64 4, ptr %9) #13
  store i32 0, ptr %9, align 4, !tbaa !9
  br label %16

16:                                               ; preds = %70, %4
  %17 = load i32, ptr %9, align 4, !tbaa !9
  %18 = load i32, ptr %8, align 4, !tbaa !9
  %19 = icmp slt i32 %17, %18
  br i1 %19, label %21, label %20

20:                                               ; preds = %16
  call void @llvm.lifetime.end.p0(i64 4, ptr %9) #13
  br label %73

21:                                               ; preds = %16
  call void @llvm.lifetime.start.p0(i64 8, ptr %10) #13
  call void @llvm.lifetime.start.p0(i64 16, ptr %11) #13
  %22 = load ptr, ptr %6, align 8, !tbaa !14
  %23 = load i32, ptr %9, align 4, !tbaa !9
  %24 = sext i32 %23 to i64
  %25 = getelementptr inbounds %class.btVector3, ptr %22, i64 %24
  %26 = getelementptr inbounds nuw %class.btConvexInternalShape, ptr %15, i32 0, i32 1
  %27 = call { <2 x float>, <2 x float> } @_ZmlRK9btVector3S1_(ptr noundef nonnull align 4 dereferenceable(16) %25, ptr noundef nonnull align 4 dereferenceable(16) %26)
  %28 = getelementptr inbounds nuw %class.btVector3, ptr %11, i32 0, i32 0
  %29 = getelementptr inbounds nuw { <2 x float>, <2 x float> }, ptr %28, i32 0, i32 0
  %30 = extractvalue { <2 x float>, <2 x float> } %27, 0
  store <2 x float> %30, ptr %29, align 4
  %31 = getelementptr inbounds nuw { <2 x float>, <2 x float> }, ptr %28, i32 0, i32 1
  %32 = extractvalue { <2 x float>, <2 x float> } %27, 1
  store <2 x float> %32, ptr %31, align 4
  store ptr %11, ptr %10, align 8, !tbaa !14
  call void @llvm.lifetime.start.p0(i64 4, ptr %12) #13
  call void @llvm.lifetime.start.p0(i64 4, ptr %13) #13
  %33 = load ptr, ptr %10, align 8, !tbaa !14
  %34 = getelementptr inbounds nuw %class.btConvexPointCloudShape, ptr %15, i32 0, i32 2
  %35 = load ptr, ptr %34, align 8, !tbaa !29
  %36 = getelementptr inbounds %class.btVector3, ptr %35, i64 0
  %37 = getelementptr inbounds nuw %class.btConvexPointCloudShape, ptr %15, i32 0, i32 3
  %38 = load i32, ptr %37, align 8, !tbaa !19
  %39 = sext i32 %38 to i64
  %40 = call noundef i64 @_ZNK9btVector36maxDotEPKS_lRf(ptr noundef nonnull align 4 dereferenceable(16) %33, ptr noundef %36, i64 noundef %39, ptr noundef nonnull align 4 dereferenceable(4) %12)
  %41 = trunc i64 %40 to i32
  store i32 %41, ptr %13, align 4, !tbaa !9
  %42 = load ptr, ptr %7, align 8, !tbaa !14
  %43 = load i32, ptr %9, align 4, !tbaa !9
  %44 = sext i32 %43 to i64
  %45 = getelementptr inbounds %class.btVector3, ptr %42, i64 %44
  %46 = call noundef ptr @_ZN9btVector3cvPfEv(ptr noundef nonnull align 4 dereferenceable(16) %45)
  %47 = getelementptr inbounds float, ptr %46, i64 3
  store float 0xC3ABC16D60000000, ptr %47, align 4, !tbaa !17
  %48 = load i32, ptr %13, align 4, !tbaa !9
  %49 = icmp sle i32 0, %48
  br i1 %49, label %50, label %69

50:                                               ; preds = %21
  call void @llvm.lifetime.start.p0(i64 16, ptr %14) #13
  %51 = load i32, ptr %13, align 4, !tbaa !9
  %52 = call { <2 x float>, <2 x float> } @_ZNK23btConvexPointCloudShape14getScaledPointEi(ptr noundef nonnull align 8 dereferenceable(132) %15, i32 noundef %51)
  %53 = getelementptr inbounds nuw %class.btVector3, ptr %14, i32 0, i32 0
  %54 = getelementptr inbounds nuw { <2 x float>, <2 x float> }, ptr %53, i32 0, i32 0
  %55 = extractvalue { <2 x float>, <2 x float> } %52, 0
  store <2 x float> %55, ptr %54, align 4
  %56 = getelementptr inbounds nuw { <2 x float>, <2 x float> }, ptr %53, i32 0, i32 1
  %57 = extractvalue { <2 x float>, <2 x float> } %52, 1
  store <2 x float> %57, ptr %56, align 4
  %58 = load ptr, ptr %7, align 8, !tbaa !14
  %59 = load i32, ptr %9, align 4, !tbaa !9
  %60 = sext i32 %59 to i64
  %61 = getelementptr inbounds %class.btVector3, ptr %58, i64 %60
  call void @llvm.memcpy.p0.p0.i64(ptr align 4 %61, ptr align 4 %14, i64 16, i1 false), !tbaa.struct !16
  call void @llvm.lifetime.end.p0(i64 16, ptr %14) #13
  %62 = load float, ptr %12, align 4, !tbaa !17
  %63 = load ptr, ptr %7, align 8, !tbaa !14
  %64 = load i32, ptr %9, align 4, !tbaa !9
  %65 = sext i32 %64 to i64
  %66 = getelementptr inbounds %class.btVector3, ptr %63, i64 %65
  %67 = call noundef ptr @_ZN9btVector3cvPfEv(ptr noundef nonnull align 4 dereferenceable(16) %66)
  %68 = getelementptr inbounds float, ptr %67, i64 3
  store float %62, ptr %68, align 4, !tbaa !17
  br label %69

69:                                               ; preds = %50, %21
  call void @llvm.lifetime.end.p0(i64 4, ptr %13) #13
  call void @llvm.lifetime.end.p0(i64 4, ptr %12) #13
  call void @llvm.lifetime.end.p0(i64 16, ptr %11) #13
  call void @llvm.lifetime.end.p0(i64 8, ptr %10) #13
  br label %70

70:                                               ; preds = %69
  %71 = load i32, ptr %9, align 4, !tbaa !9
  %72 = add nsw i32 %71, 1
  store i32 %72, ptr %9, align 4, !tbaa !9
  br label %16, !llvm.loop !36

73:                                               ; preds = %20
  ret void
}